target datalayout = "e-m:e-p270:32:32-p271:32:32-p272:64:64-i64:64-i128:128-f80:128-n8:16:32:64-S128"
target triple = "x86_64-pc-linux-gnu"

; Function Attrs: nounwind uwtable
define i32 @Cudd_bddVarDisjDecomp(ptr noundef %0, ptr noundef %1, ptr noundef %2) #0 {
  %4 = alloca ptr, align 8
  %5 = alloca ptr, align 8
  %6 = alloca ptr, align 8
  %7 = alloca i32, align 4
  %8 = alloca i32, align 4
  store ptr %0, ptr %4, align 8, !tbaa !3
  store ptr %1, ptr %5, align 8, !tbaa !8
  store ptr %2, ptr %6, align 8, !tbaa !10
  call void @llvm.lifetime.start.p0(i64 4, ptr %7) #5
  call void @llvm.lifetime.start.p0(i64 4, ptr %8) #5
  %9 = load ptr, ptr %4, align 8, !tbaa !3
  %10 = load ptr, ptr %5, align 8, !tbaa !8
  %11 = ptrtoint ptr %10 to i64
  %12 = xor i64 %11, 1
  %13 = inttoptr i64 %12 to ptr
  %14 = load ptr, ptr %6, align 8, !tbaa !10
  %15 = call i32 @Cudd_bddVarConjDecomp(ptr noundef %9, ptr noundef %13, ptr noundef %14)
  store i32 %15, ptr %7, align 4, !tbaa !12
  store i32 0, ptr %8, align 4, !tbaa !12
  br label %16

16:                                               ; preds = %35, %3
  %17 = load i32, ptr %8, align 4, !tbaa !12
  %18 = load i32, ptr %7, align 4, !tbaa !12
  %19 = icmp slt i32 %17, %18
  br i1 %19, label %20, label %38

20:                                               ; preds = %16
  %21 = load ptr, ptr %6, align 8, !tbaa !10
  %22 = load ptr, ptr %21, align 8, !tbaa !31
  %23 = load i32, ptr %8, align 4, !tbaa !12
  %24 = sext i32 %23 to i64
  %25 = getelementptr inbounds ptr, ptr %22, i64 %24
  %26 = load ptr, ptr %25, align 8, !tbaa !8
  %27 = ptrtoint ptr %26 to i64
  %28 = xor i64 %27, 1
  %29 = inttoptr i64 %28 to ptr
  %30 = load ptr, ptr %6, align 8, !tbaa !10
  %31 = load ptr, ptr %30, align 8, !tbaa !31
  %32 = load i32, ptr %8, align 4, !tbaa !12
  %33 = sext i32 %32 to i64
  %34 = getelementptr inbounds ptr, ptr %31, i64 %33
  store ptr %29, ptr %34, align 8, !tbaa !8
  br label %35

35:                                               ; preds = %20
  %36 = load i32, ptr %8, align 4, !tbaa !12
  %37 = add nsw i32 %36, 1
  store i32 %37, ptr %8, align 4, !tbaa !12
  br label %16, !llvm.loop !68

38:                                               ; preds = %16
  %39 = load i32, ptr %7, align 4, !tbaa !12
  call void @llvm.lifetime.end.p0(i64 4, ptr %8) #5
  call void @llvm.lifetime.end.p0(i64 4, ptr %7) #5
  ret i32 %39
}